; Function Attrs: mustprogress uwtable
define hidden noundef i32 @_ZN3smt13theory_recfun14final_check_ehEv(ptr noundef nonnull align 8 dereferenceable(212) %this) unnamed_addr #3 align 2 {
entry:
  %vtable = load ptr, ptr %this, align 8
  %vfn = getelementptr inbounds i8, ptr %vtable, i64 176
  %0 = load ptr, ptr %vfn, align 8
  %call = tail call noundef zeroext i1 %0(ptr noundef nonnull align 8 dereferenceable(212) %this)
  br i1 %call, label %if.then, label %return

if.then:                                          ; preds = %entry
  %vtable2 = load ptr, ptr %this, align 8
  %vfn3 = getelementptr inbounds i8, ptr %vtable2, i64 184
  %1 = load ptr, ptr %vfn3, align 8
  tail call void %1(ptr noundef nonnull align 8 dereferenceable(212) %this)
  br label %return

return:                                           ; preds = %entry, %if.then
  %retval.0 = phi i32 [ 1, %if.then ], [ 0, %entry ]
  ret i32 %retval.0
}